target datalayout = "e-m:e-p270:32:32-p271:32:32-p272:64:64-i64:64-i128:128-f80:128-n8:16:32:64-S128"
target triple = "x86_64-unknown-linux-gnu"

%struct.CPUArchState = type { [32 x i64], [32 x i64], [512 x i64], i64, i64, i64, i64, i64, i8, i64, i64, i64, [32 x i64], i64, %struct.float_status, i64, i64, i64, i64, i64, i64, i32, i32, i32, i32, i32, i64, i64, i64, i8, i64, i64, i64, i64, i64, i8, i8, i64, i64, i64, i64, i64, i64, i64, i64, i64, i64, i64, i64, i64, i64, i64, [64 x i8], [64 x i8], i64, i64, i64, i64, i64, i64, i64, i64, i64, i64, i64, i64, i64, i64, i64, i64, i64, [64 x i8], i64, i64, i64, i64, i64, i64, i64, i64, i64, i64, i64, i64, i64, i64, i64, i64, i64, i64, i64, i8, i8, i64, i64, i64, [32 x %struct.PMUCTRState], [32 x i64], [32 x i64], i64, i64, i64, i64, %struct.pmp_table_t, i64, i64, [2 x i64], [2 x i64], [2 x i64], [2 x ptr], [2 x ptr], [2 x ptr], i64, i8, ptr, ptr, [4 x ptr], [4 x ptr], i8, i64, i64, i64, i64, i64, i64, i64, i64, [4 x i64], [4 x i64], [4 x i64], i64, i64, i64, i64, ptr, ptr, i8, i64, i64, [8 x i8] }
%struct.float_status = type { i16, i8, i8, i8, i8, i8, i8, i8, i8, i8, i8, i8 }
%struct.PMUCTRState = type { i64, i64, i64, i64, i8, i64 }
%struct.pmp_table_t = type { [16 x %struct.pmp_entry_t], [16 x %struct.pmp_addr_t], i32 }
%struct.pmp_entry_t = type { i64, i8 }
%struct.pmp_addr_t = type { i64, i64 }

@use_icount = external global i32, align 4
@.str = private unnamed_addr constant [29 x i8] c"../qemu/target/riscv/debug.c\00", align 1
@__func__.tdata_csr_read = private unnamed_addr constant [15 x i8] c"tdata_csr_read\00", align 1
@__func__.extract_trigger_type = private unnamed_addr constant [21 x i8] c"extract_trigger_type\00", align 1
@.str.4 = private unnamed_addr constant [49 x i8] c"start >= 0 && length > 0 && length <= 32 - start\00", align 1
@.str.5 = private unnamed_addr constant [100 x i8] c"/home/dtcxzyw/WorkSpace/Projects/compilers/llvm-opt-benchmark/bench/qemu/qemu/include/qemu/bitops.h\00", align 1
@__PRETTY_FUNCTION__.extract32 = private unnamed_addr constant [39 x i8] c"uint32_t extract32(uint32_t, int, int)\00", align 1
@.str.6 = private unnamed_addr constant [49 x i8] c"start >= 0 && length > 0 && length <= 64 - start\00", align 1
@__PRETTY_FUNCTION__.extract64 = private unnamed_addr constant [39 x i8] c"uint64_t extract64(uint64_t, int, int)\00", align 1
@__PRETTY_FUNCTION__.deposit64 = private unnamed_addr constant [49 x i8] c"uint64_t deposit64(uint64_t, int, int, uint64_t)\00", align 1

; Function Attrs: nounwind sspstrong uwtable
define internal zeroext i1 @check_itrigger_priv(ptr noundef %env, i32 noundef %index) #0 {
entry:
  %retval = alloca i1, align 1
  %env.addr = alloca ptr, align 8
  %index.addr = alloca i32, align 4
  %tdata1 = alloca i64, align 8
  store ptr %env, ptr %env.addr, align 8
  store i32 %index, ptr %index.addr, align 4
  %0 = load ptr, ptr %env.addr, align 8
  %tdata11 = getelementptr inbounds %struct.CPUArchState, ptr %0, i32 0, i32 106
  %1 = load i32, ptr %index.addr, align 4
  %idxprom = sext i32 %1 to i64
  %arrayidx = getelementptr [2 x i64], ptr %tdata11, i64 0, i64 %idxprom
  %2 = load i64, ptr %arrayidx, align 8
  store i64 %2, ptr %tdata1, align 8
  %3 = load ptr, ptr %env.addr, align 8
  %virt_enabled = getelementptr inbounds %struct.CPUArchState, ptr %3, i32 0, i32 29
  %4 = load i8, ptr %virt_enabled, align 16
  %tobool = trunc i8 %4 to i1
  br i1 %tobool, label %if.then, label %if.else

if.then:                                          ; preds = %entry
  %5 = load i64, ptr %tdata1, align 8
  %and = and i64 %5, 67108864
  %div = udiv i64 %and, 67108864
  %6 = load ptr, ptr %env.addr, align 8
  %priv = getelementptr inbounds %struct.CPUArchState, ptr %6, i32 0, i32 28
  %7 = load i64, ptr %priv, align 8
  %cmp = icmp eq i64 %div, %7
  br i1 %cmp, label %lor.end, label %lor.rhs

lor.rhs:                                          ; preds = %if.then
  %8 = load i64, ptr %tdata1, align 8
  %and2 = and i64 %8, 33554432
  %div3 = udiv i64 %and2, 33554432
  %9 = load ptr, ptr %env.addr, align 8
  %priv4 = getelementptr inbounds %struct.CPUArchState, ptr %9, i32 0, i32 28
  %10 = load i64, ptr %priv4, align 8
  %cmp5 = icmp eq i64 %div3, %10
  br label %lor.end

lor.end:                                          ; preds = %lor.rhs, %if.then
  %11 = phi i1 [ true, %if.then ], [ %cmp5, %lor.rhs ]
  store i1 %11, ptr %retval, align 1
  br label %return

if.else:                                          ; preds = %entry
  %12 = load i64, ptr %tdata1, align 8
  %and6 = and i64 %12, 512
  %div7 = udiv i64 %and6, 512
  %13 = load ptr, ptr %env.addr, align 8
  %priv8 = getelementptr inbounds %struct.CPUArchState, ptr %13, i32 0, i32 28
  %14 = load i64, ptr %priv8, align 8
  %cmp9 = icmp eq i64 %div7, %14
  br i1 %cmp9, label %lor.end19, label %lor.lhs.false

lor.lhs.false:                                    ; preds = %if.else
  %15 = load i64, ptr %tdata1, align 8
  %and10 = and i64 %15, 128
  %div11 = udiv i64 %and10, 128
  %16 = load ptr, ptr %env.addr, align 8
  %priv12 = getelementptr inbounds %struct.CPUArchState, ptr %16, i32 0, i32 28
  %17 = load i64, ptr %priv12, align 8
  %cmp13 = icmp eq i64 %div11, %17
  br i1 %cmp13, label %lor.end19, label %lor.rhs14

lor.rhs14:                                        ; preds = %lor.lhs.false
  %18 = load i64, ptr %tdata1, align 8
  %and15 = and i64 %18, 64
  %div16 = udiv i64 %and15, 64
  %19 = load ptr, ptr %env.addr, align 8
  %priv17 = getelementptr inbounds %struct.CPUArchState, ptr %19, i32 0, i32 28
  %20 = load i64, ptr %priv17, align 8
  %cmp18 = icmp eq i64 %div16, %20
  br label %lor.end19

lor.end19:                                        ; preds = %lor.rhs14, %lor.lhs.false, %if.else
  %21 = phi i1 [ true, %lor.lhs.false ], [ true, %if.else ], [ %cmp18, %lor.rhs14 ]
  store i1 %21, ptr %retval, align 1
  br label %return

return:                                           ; preds = %lor.end19, %lor.end
  %22 = load i1, ptr %retval, align 1
  ret i1 %22
}

; Function Attrs: nounwind sspstrong uwtable
define internal i32 @itrigger_get_count(ptr noundef %env, i32 noundef %index) #0 {
entry:
  %env.addr = alloca ptr, align 8
  %index.addr = alloca i32, align 4
  store ptr %env, ptr %env.addr, align 8
  store i32 %index, ptr %index.addr, align 4
  %0 = load ptr, ptr %env.addr, align 8
  %tdata1 = getelementptr inbounds %struct.CPUArchState, ptr %0, i32 0, i32 106
  %1 = load i32, ptr %index.addr, align 4
  %idxprom = sext i32 %1 to i64
  %arrayidx = getelementptr [2 x i64], ptr %tdata1, i64 0, i64 %idxprom
  %2 = load i64, ptr %arrayidx, align 8
  %and = and i64 %2, 16776192
  %div = udiv i64 %and, 1024
  %conv = trunc i64 %div to i32
  ret i32 %conv
}

; Function Attrs: nounwind sspstrong uwtable
define internal i64 @extract64(i64 noundef %value, i32 noundef %start, i32 noundef %length) #0 {
entry:
  %value.addr = alloca i64, align 8
  %start.addr = alloca i32, align 4
  %length.addr = alloca i32, align 4
  store i64 %value, ptr %value.addr, align 8
  store i32 %start, ptr %start.addr, align 4
  store i32 %length, ptr %length.addr, align 4
  %0 = load i32, ptr %start.addr, align 4
  %cmp = icmp sge i32 %0, 0
  br i1 %cmp, label %land.lhs.true, label %if.else

land.lhs.true:                                    ; preds = %entry
  %1 = load i32, ptr %length.addr, align 4
  %cmp1 = icmp sgt i32 %1, 0
  br i1 %cmp1, label %land.lhs.true2, label %if.else

land.lhs.true2:                                   ; preds = %land.lhs.true
  %2 = load i32, ptr %length.addr, align 4
  %3 = load i32, ptr %start.addr, align 4
  %sub = sub i32 64, %3
  %cmp3 = icmp sle i32 %2, %sub
  br i1 %cmp3, label %if.then, label %if.else

if.then:                                          ; preds = %land.lhs.true2
  br label %if.end

if.else:                                          ; preds = %land.lhs.true2, %land.lhs.true, %entry
  call void @__assert_fail(ptr noundef @.str.6, ptr noundef @.str.5, i32 noundef 395, ptr noundef @__PRETTY_FUNCTION__.extract64) #6
  unreachable

if.end:                                           ; preds = %if.then
  %4 = load i64, ptr %value.addr, align 8
  %5 = load i32, ptr %start.addr, align 4
  %sh_prom = zext i32 %5 to i64
  %shr = lshr i64 %4, %sh_prom
  %6 = load i32, ptr %length.addr, align 4
  %sub4 = sub i32 64, %6
  %sh_prom5 = zext i32 %sub4 to i64
  %shr6 = lshr i64 -1, %sh_prom5
  %and = and i64 %shr, %shr6
  ret i64 %and
}

; Function Attrs: nounwind sspstrong uwtable
define internal i32 @extract32(i32 noundef %value, i32 noundef %start, i32 noundef %length) #0 {
entry:
  %value.addr = alloca i32, align 4
  %start.addr = alloca i32, align 4
  %length.addr = alloca i32, align 4
  store i32 %value, ptr %value.addr, align 4
  store i32 %start, ptr %start.addr, align 4
  store i32 %length, ptr %length.addr, align 4
  %0 = load i32, ptr %start.addr, align 4
  %cmp = icmp sge i32 %0, 0
  br i1 %cmp, label %land.lhs.true, label %if.else

land.lhs.true:                                    ; preds = %entry
  %1 = load i32, ptr %length.addr, align 4
  %cmp1 = icmp sgt i32 %1, 0
  br i1 %cmp1, label %land.lhs.true2, label %if.else

land.lhs.true2:                                   ; preds = %land.lhs.true
  %2 = load i32, ptr %length.addr, align 4
  %3 = load i32, ptr %start.addr, align 4
  %sub = sub i32 32, %3
  %cmp3 = icmp sle i32 %2, %sub
  br i1 %cmp3, label %if.then, label %if.else

if.then:                                          ; preds = %land.lhs.true2
  br label %if.end

if.else:                                          ; preds = %land.lhs.true2, %land.lhs.true, %entry
  call void @__assert_fail(ptr noundef @.str.4, ptr noundef @.str.5, i32 noundef 338, ptr noundef @__PRETTY_FUNCTION__.extract32) #6
  unreachable

if.end:                                           ; preds = %if.then
  %4 = load i32, ptr %value.addr, align 4
  %5 = load i32, ptr %start.addr, align 4
  %shr = lshr i32 %4, %5
  %6 = load i32, ptr %length.addr, align 4
  %sub4 = sub i32 32, %6
  %shr5 = lshr i32 -1, %sub4
  %and = and i32 %shr, %shr5
  ret i32 %and
}

; Function Attrs: nounwind sspstrong uwtable
define internal i32 @riscv_cpu_mxl(ptr noundef %env) #0 {
entry:
  %env.addr = alloca ptr, align 8
  store ptr %env, ptr %env.addr, align 8
  %0 = load ptr, ptr %env.addr, align 8
  %misa_mxl = getelementptr inbounds %struct.CPUArchState, ptr %0, i32 0, i32 21
  %1 = load i32, ptr %misa_mxl, align 16
  ret i32 %1
}

; Function Attrs: nounwind sspstrong uwtable
define internal i64 @deposit64(i64 noundef %value, i32 noundef %start, i32 noundef %length, i64 noundef %fieldval) #0 {
entry:
  %value.addr = alloca i64, align 8
  %start.addr = alloca i32, align 4
  %length.addr = alloca i32, align 4
  %fieldval.addr = alloca i64, align 8
  %mask = alloca i64, align 8
  store i64 %value, ptr %value.addr, align 8
  store i32 %start, ptr %start.addr, align 4
  store i32 %length, ptr %length.addr, align 4
  store i64 %fieldval, ptr %fieldval.addr, align 8
  %0 = load i32, ptr %start.addr, align 4
  %cmp = icmp sge i32 %0, 0
  br i1 %cmp, label %land.lhs.true, label %if.else

land.lhs.true:                                    ; preds = %entry
  %1 = load i32, ptr %length.addr, align 4
  %cmp1 = icmp sgt i32 %1, 0
  br i1 %cmp1, label %land.lhs.true2, label %if.else

land.lhs.true2:                                   ; preds = %land.lhs.true
  %2 = load i32, ptr %length.addr, align 4
  %3 = load i32, ptr %start.addr, align 4
  %sub = sub i32 64, %3
  %cmp3 = icmp sle i32 %2, %sub
  br i1 %cmp3, label %if.then, label %if.else

if.then:                                          ; preds = %land.lhs.true2
  br label %if.end

if.else:                                          ; preds = %land.lhs.true2, %land.lhs.true, %entry
  call void @__assert_fail(ptr noundef @.str.6, ptr noundef @.str.5, i32 noundef 496, ptr noundef @__PRETTY_FUNCTION__.deposit64) #6
  unreachable

if.end:                                           ; preds = %if.then
  %4 = load i32, ptr %length.addr, align 4
  %sub4 = sub i32 64, %4
  %sh_prom = zext i32 %sub4 to i64
  %shr = lshr i64 -1, %sh_prom
  %5 = load i32, ptr %start.addr, align 4
  %sh_prom5 = zext i32 %5 to i64
  %shl = shl i64 %shr, %sh_prom5
  store i64 %shl, ptr %mask, align 8
  %6 = load i64, ptr %value.addr, align 8
  %7 = load i64, ptr %mask, align 8
  %not = xor i64 %7, -1
  %and = and i64 %6, %not
  %8 = load i64, ptr %fieldval.addr, align 8
  %9 = load i32, ptr %start.addr, align 4
  %sh_prom6 = zext i32 %9 to i64
  %shl7 = shl i64 %8, %sh_prom6
  %10 = load i64, ptr %mask, align 8
  %and8 = and i64 %shl7, %10
  %or = or i64 %and, %and8
  ret i64 %or
}

; Function Attrs: nounwind sspstrong uwtable
define internal i32 @itrigger_get_adjust_count(ptr noundef %env) #0 {
entry:
  %env.addr = alloca ptr, align 8
  %count = alloca i32, align 4
  %executed = alloca i32, align 4
  store ptr %env, ptr %env.addr, align 8
  %0 = load ptr, ptr %env.addr, align 8
  %1 = load ptr, ptr %env.addr, align 8
  %trigger_cur = getelementptr inbounds %struct.CPUArchState, ptr %1, i32 0, i32 105
  %2 = load i64, ptr %trigger_cur, align 16
  %conv = trunc i64 %2 to i32
  %call = call i32 @itrigger_get_count(ptr noundef %0, i32 noundef %conv)
  store i32 %call, ptr %count, align 4
  %3 = load i32, ptr %count, align 4
  %cmp = icmp ne i32 %3, 0
  br i1 %cmp, label %land.lhs.true, label %if.end

land.lhs.true:                                    ; preds = %entry
  %4 = load ptr, ptr %env.addr, align 8
  %5 = load ptr, ptr %env.addr, align 8
  %trigger_cur2 = getelementptr inbounds %struct.CPUArchState, ptr %5, i32 0, i32 105
  %6 = load i64, ptr %trigger_cur2, align 16
  %conv3 = trunc i64 %6 to i32
  %call4 = call zeroext i1 @check_itrigger_priv(ptr noundef %4, i32 noundef %conv3)
  br i1 %call4, label %if.then, label %if.end

if.then:                                          ; preds = %land.lhs.true
  %call6 = call i64 @icount_get_raw()
  %7 = load ptr, ptr %env.addr, align 8
  %last_icount = getelementptr inbounds %struct.CPUArchState, ptr %7, i32 0, i32 112
  %8 = load i64, ptr %last_icount, align 8
  %sub = sub i64 %call6, %8
  %conv7 = trunc i64 %sub to i32
  store i32 %conv7, ptr %executed, align 4
  %9 = load i32, ptr %executed, align 4
  %10 = load i32, ptr %count, align 4
  %add = add i32 %10, %9
  store i32 %add, ptr %count, align 4
  br label %if.end

if.end:                                           ; preds = %if.then, %land.lhs.true, %entry
  %11 = load i32, ptr %count, align 4
  ret i32 %11
}

; Function Attrs: nounwind sspstrong uwtable
define internal i64 @extract_trigger_type(ptr noundef %env, i64 noundef %tdata1) #0 {
entry:
  %retval = alloca i64, align 8
  %env.addr = alloca ptr, align 8
  %tdata1.addr = alloca i64, align 8
  store ptr %env, ptr %env.addr, align 8
  store i64 %tdata1, ptr %tdata1.addr, align 8
  %0 = load ptr, ptr %env.addr, align 8
  %call = call i32 @riscv_cpu_mxl(ptr noundef %0)
  switch i32 %call, label %sw.default [
    i32 1, label %sw.bb
    i32 2, label %sw.bb3
    i32 3, label %sw.bb3
  ]

sw.bb:                                            ; preds = %entry
  %1 = load i64, ptr %tdata1.addr, align 8
  %conv = trunc i64 %1 to i32
  %call1 = call i32 @extract32(i32 noundef %conv, i32 noundef 28, i32 noundef 4)
  %conv2 = zext i32 %call1 to i64
  store i64 %conv2, ptr %retval, align 8
  br label %sw.epilog

sw.bb3:                                           ; preds = %entry, %entry
  %2 = load i64, ptr %tdata1.addr, align 8
  %call4 = call i64 @extract64(i64 noundef %2, i32 noundef 60, i32 noundef 4)
  store i64 %call4, ptr %retval, align 8
  br label %sw.epilog

sw.default:                                       ; preds = %entry
  br label %do.body

do.body:                                          ; preds = %sw.default
  call void @g_assertion_message_expr(ptr noundef null, ptr noundef @.str, i32 noundef 87, ptr noundef @__func__.extract_trigger_type, ptr noundef null) #5
  unreachable

do.end:                                           ; No predecessors!
  br label %sw.epilog

sw.epilog:                                        ; preds = %do.end, %sw.bb3, %sw.bb
  %3 = load i64, ptr %retval, align 8
  ret i64 %3
}

; Function Attrs: nounwind sspstrong uwtable
define dso_local i64 @tdata_csr_read(ptr noundef %env, i32 noundef %tdata_index) #0 {
entry:
  %retval = alloca i64, align 8
  %env.addr = alloca ptr, align 8
  %tdata_index.addr = alloca i32, align 4
  %trigger_type = alloca i32, align 4
  store ptr %env, ptr %env.addr, align 8
  store i32 %tdata_index, ptr %tdata_index.addr, align 4
  %0 = load i32, ptr %tdata_index.addr, align 4
  switch i32 %0, label %sw.default [
    i32 0, label %sw.bb
    i32 1, label %sw.bb11
    i32 2, label %sw.bb14
  ]

sw.bb:                                            ; preds = %entry
  %1 = load ptr, ptr %env.addr, align 8
  %2 = load ptr, ptr %env.addr, align 8
  %tdata1 = getelementptr inbounds %struct.CPUArchState, ptr %2, i32 0, i32 106
  %3 = load ptr, ptr %env.addr, align 8
  %trigger_cur = getelementptr inbounds %struct.CPUArchState, ptr %3, i32 0, i32 105
  %4 = load i64, ptr %trigger_cur, align 16
  %arrayidx = getelementptr [2 x i64], ptr %tdata1, i64 0, i64 %4
  %5 = load i64, ptr %arrayidx, align 8
  %call = call i64 @extract_trigger_type(ptr noundef %1, i64 noundef %5)
  %conv = trunc i64 %call to i32
  store i32 %conv, ptr %trigger_type, align 4
  %6 = load i32, ptr %trigger_type, align 4
  %cmp = icmp eq i32 %6, 3
  br i1 %cmp, label %land.lhs.true, label %if.end

land.lhs.true:                                    ; preds = %sw.bb
  %7 = load i32, ptr @use_icount, align 4
  %tobool = icmp ne i32 %7, 0
  br i1 %tobool, label %if.then, label %if.end

if.then:                                          ; preds = %land.lhs.true
  %8 = load ptr, ptr %env.addr, align 8
  %tdata12 = getelementptr inbounds %struct.CPUArchState, ptr %8, i32 0, i32 106
  %9 = load ptr, ptr %env.addr, align 8
  %trigger_cur3 = getelementptr inbounds %struct.CPUArchState, ptr %9, i32 0, i32 105
  %10 = load i64, ptr %trigger_cur3, align 16
  %arrayidx4 = getelementptr [2 x i64], ptr %tdata12, i64 0, i64 %10
  %11 = load i64, ptr %arrayidx4, align 8
  %12 = load ptr, ptr %env.addr, align 8
  %call5 = call i32 @itrigger_get_adjust_count(ptr noundef %12)
  %conv6 = sext i32 %call5 to i64
  %call7 = call i64 @deposit64(i64 noundef %11, i32 noundef 10, i32 noundef 14, i64 noundef %conv6)
  store i64 %call7, ptr %retval, align 8
  br label %sw.epilog

if.end:                                           ; preds = %land.lhs.true, %sw.bb
  %13 = load ptr, ptr %env.addr, align 8
  %tdata18 = getelementptr inbounds %struct.CPUArchState, ptr %13, i32 0, i32 106
  %14 = load ptr, ptr %env.addr, align 8
  %trigger_cur9 = getelementptr inbounds %struct.CPUArchState, ptr %14, i32 0, i32 105
  %15 = load i64, ptr %trigger_cur9, align 16
  %arrayidx10 = getelementptr [2 x i64], ptr %tdata18, i64 0, i64 %15
  %16 = load i64, ptr %arrayidx10, align 8
  store i64 %16, ptr %retval, align 8
  br label %sw.epilog

sw.bb11:                                          ; preds = %entry
  %17 = load ptr, ptr %env.addr, align 8
  %tdata2 = getelementptr inbounds %struct.CPUArchState, ptr %17, i32 0, i32 107
  %18 = load ptr, ptr %env.addr, align 8
  %trigger_cur12 = getelementptr inbounds %struct.CPUArchState, ptr %18, i32 0, i32 105
  %19 = load i64, ptr %trigger_cur12, align 16
  %arrayidx13 = getelementptr [2 x i64], ptr %tdata2, i64 0, i64 %19
  %20 = load i64, ptr %arrayidx13, align 8
  store i64 %20, ptr %retval, align 8
  br label %sw.epilog

sw.bb14:                                          ; preds = %entry
  %21 = load ptr, ptr %env.addr, align 8
  %tdata3 = getelementptr inbounds %struct.CPUArchState, ptr %21, i32 0, i32 108
  %22 = load ptr, ptr %env.addr, align 8
  %trigger_cur15 = getelementptr inbounds %struct.CPUArchState, ptr %22, i32 0, i32 105
  %23 = load i64, ptr %trigger_cur15, align 16
  %arrayidx16 = getelementptr [2 x i64], ptr %tdata3, i64 0, i64 %23
  %24 = load i64, ptr %arrayidx16, align 8
  store i64 %24, ptr %retval, align 8
  br label %sw.epilog

sw.default:                                       ; preds = %entry
  br label %do.body

do.body:                                          ; preds = %sw.default
  call void @g_assertion_message_expr(ptr noundef null, ptr noundef @.str, i32 noundef 711, ptr noundef @__func__.tdata_csr_read, ptr noundef null) #5
  unreachable

do.end:                                           ; No predecessors!
  br label %sw.epilog

sw.epilog:                                        ; preds = %do.end, %sw.bb14, %sw.bb11, %if.end, %if.then
  %25 = load i64, ptr %retval, align 8
  ret i64 %25
}