; Function Attrs: nounwind sspstrong uwtable
define dso_local i64 @tdata_csr_read(ptr noundef readonly captures(none) %env, i32 noundef %tdata_index) local_unnamed_addr #0 {
entry:
  switch i32 %tdata_index, label %do.body [
    i32 0, label %sw.bb
    i32 1, label %sw.bb11
    i32 2, label %sw.bb14
  ]

sw.bb:                                            ; preds = %entry
  %tdata1 = getelementptr inbounds nuw i8, ptr %env, i64 8360
  %trigger_cur = getelementptr inbounds nuw i8, ptr %env, i64 8352
  %0 = load i64, ptr %trigger_cur, align 16
  %arrayidx = getelementptr [2 x i64], ptr %tdata1, i64 0, i64 %0
  %1 = load i64, ptr %arrayidx, align 8
  %2 = getelementptr i8, ptr %env, i64 5008
  %env.val = load i32, ptr %2, align 16
  switch i32 %env.val, label %do.body.i [
    i32 1, label %sw.bb.i
    i32 2, label %sw.bb3.i
    i32 3, label %sw.bb3.i
  ]

sw.bb.i:                                          ; preds = %sw.bb
  %shr.i.i = lshr i64 %1, 28
  %conv2.i = and i64 %shr.i.i, 15
  br label %extract_trigger_type.exit

sw.bb3.i:                                         ; preds = %sw.bb, %sw.bb
  %shr.i2.i = lshr i64 %1, 60
  br label %extract_trigger_type.exit

do.body.i:                                        ; preds = %sw.bb
  tail call void @g_assertion_message_expr(ptr noundef null, ptr noundef nonnull @.str, i32 noundef 87, ptr noundef nonnull @__func__.extract_trigger_type, ptr noundef null) #7
  unreachable

extract_trigger_type.exit:                        ; preds = %sw.bb.i, %sw.bb3.i
  %retval.0.i = phi i64 [ %shr.i2.i, %sw.bb3.i ], [ %conv2.i, %sw.bb.i ]
  %cmp = icmp eq i64 %retval.0.i, 3
  %3 = load i32, ptr @use_icount, align 4
  %tobool = icmp ne i32 %3, 0
  %or.cond = select i1 %cmp, i1 %tobool, i1 false
  br i1 %or.cond, label %if.then, label %sw.epilog

if.then:                                          ; preds = %extract_trigger_type.exit
  %sext.i = shl i64 %0, 32
  %idxprom.i.i = ashr exact i64 %sext.i, 32
  %arrayidx.i.i = getelementptr [2 x i64], ptr %tdata1, i64 0, i64 %idxprom.i.i
  %4 = load i64, ptr %arrayidx.i.i, align 8
  %5 = trunc i64 %4 to i32
  %6 = lshr i32 %5, 10
  %conv.i.i = and i32 %6, 16383
  %cmp.not.i = icmp eq i32 %conv.i.i, 0
  br i1 %cmp.not.i, label %itrigger_get_adjust_count.exit, label %land.lhs.true.i

land.lhs.true.i:                                  ; preds = %if.then
  %virt_enabled.i.i = getelementptr inbounds nuw i8, ptr %env, i64 5056
  %7 = load i8, ptr %virt_enabled.i.i, align 16
  %tobool.i.i = trunc i8 %7 to i1
  %priv.i.i = getelementptr inbounds nuw i8, ptr %env, i64 5048
  %8 = load i64, ptr %priv.i.i, align 8
  br i1 %tobool.i.i, label %if.then.i.i, label %if.else.i.i

if.then.i.i:                                      ; preds = %land.lhs.true.i
  %and.i.i = lshr i64 %4, 26
  %div15.i.i = and i64 %and.i.i, 1
  %cmp.i.i = icmp eq i64 %div15.i.i, %8
  %and2.i.i = lshr i64 %4, 25
  %div316.i.i = and i64 %and2.i.i, 1
  %cmp5.i.i = icmp eq i64 %div316.i.i, %8
  %9 = or i1 %cmp.i.i, %cmp5.i.i
  br i1 %9, label %if.then.i, label %itrigger_get_adjust_count.exit

if.else.i.i:                                      ; preds = %land.lhs.true.i
  %and6.i.i = lshr i64 %4, 9
  %div712.i.i = and i64 %and6.i.i, 1
  %cmp9.i.i = icmp eq i64 %div712.i.i, %8
  br i1 %cmp9.i.i, label %if.then.i, label %lor.lhs.false.i.i

lor.lhs.false.i.i:                                ; preds = %if.else.i.i
  %and10.i.i = lshr i64 %4, 7
  %div1113.i.i = and i64 %and10.i.i, 1
  %cmp13.i.i = icmp eq i64 %div1113.i.i, %8
  br i1 %cmp13.i.i, label %if.then.i, label %check_itrigger_priv.exit.i

check_itrigger_priv.exit.i:                       ; preds = %lor.lhs.false.i.i
  %and15.i.i = lshr i64 %4, 6
  %div1614.i.i = and i64 %and15.i.i, 1
  %cmp18.i.i = icmp eq i64 %div1614.i.i, %8
  br i1 %cmp18.i.i, label %if.then.i, label %itrigger_get_adjust_count.exit

if.then.i:                                        ; preds = %check_itrigger_priv.exit.i, %lor.lhs.false.i.i, %if.else.i.i, %if.then.i.i
  %call6.i = tail call i64 @icount_get_raw() #8
  %last_icount.i = getelementptr inbounds nuw i8, ptr %env, i64 8456
  %10 = load i64, ptr %last_icount.i, align 8
  %sub.i = sub i64 %call6.i, %10
  %conv7.i = trunc i64 %sub.i to i32
  %add.i = add i32 %conv.i.i, %conv7.i
  br label %itrigger_get_adjust_count.exit

itrigger_get_adjust_count.exit:                   ; preds = %if.then, %if.then.i.i, %check_itrigger_priv.exit.i, %if.then.i
  %count.0.i = phi i32 [ %add.i, %if.then.i ], [ %conv.i.i, %check_itrigger_priv.exit.i ], [ 0, %if.then ], [ %conv.i.i, %if.then.i.i ]
  %conv6 = sext i32 %count.0.i to i64
  %and.i = and i64 %1, -16776193
  %shl7.i = shl nsw i64 %conv6, 10
  %and8.i = and i64 %shl7.i, 16776192
  %or.i = or disjoint i64 %and8.i, %and.i
  br label %sw.epilog

sw.bb11:                                          ; preds = %entry
  %tdata2 = getelementptr inbounds nuw i8, ptr %env, i64 8376
  %trigger_cur12 = getelementptr inbounds nuw i8, ptr %env, i64 8352
  %11 = load i64, ptr %trigger_cur12, align 16
  %arrayidx13 = getelementptr [2 x i64], ptr %tdata2, i64 0, i64 %11
  %12 = load i64, ptr %arrayidx13, align 8
  br label %sw.epilog

sw.bb14:                                          ; preds = %entry
  %tdata3 = getelementptr inbounds nuw i8, ptr %env, i64 8392
  %trigger_cur15 = getelementptr inbounds nuw i8, ptr %env, i64 8352
  %13 = load i64, ptr %trigger_cur15, align 16
  %arrayidx16 = getelementptr [2 x i64], ptr %tdata3, i64 0, i64 %13
  %14 = load i64, ptr %arrayidx16, align 8
  br label %sw.epilog

do.body:                                          ; preds = %entry
  tail call void @g_assertion_message_expr(ptr noundef null, ptr noundef nonnull @.str, i32 noundef 711, ptr noundef nonnull @__func__.tdata_csr_read, ptr noundef null) #7
  unreachable

sw.epilog:                                        ; preds = %extract_trigger_type.exit, %sw.bb14, %sw.bb11, %itrigger_get_adjust_count.exit
  %retval.0 = phi i64 [ %14, %sw.bb14 ], [ %12, %sw.bb11 ], [ %or.i, %itrigger_get_adjust_count.exit ], [ %1, %extract_trigger_type.exit ]
  ret i64 %retval.0
}